target datalayout = "e-m:e-p270:32:32-p271:32:32-p272:64:64-i64:64-i128:128-f80:128-n8:16:32:64-S128"
target triple = "x86_64-pc-linux-gnu"

%struct.opj_tcd_marker_info = type { i32, i32, ptr }

; Function Attrs: nounwind uwtable
define hidden ptr @opj_tcd_marker_info_create(i32 noundef %0) #0 {
  %2 = alloca ptr, align 8
  %3 = alloca i32, align 4
  %4 = alloca ptr, align 8
  %5 = alloca i32, align 4
  store i32 %0, ptr %3, align 4, !tbaa !3
  call void @llvm.lifetime.start.p0(i64 8, ptr %4) #8
  %6 = call ptr @opj_calloc(i64 noundef 1, i64 noundef 16)
  store ptr %6, ptr %4, align 8, !tbaa !184
  %7 = load ptr, ptr %4, align 8, !tbaa !184
  %8 = icmp ne ptr %7, null
  br i1 %8, label %10, label %9

9:                                                ; preds = %1
  store ptr null, ptr %2, align 8
  store i32 1, ptr %5, align 4
  br label %15

10:                                               ; preds = %1
  %11 = load i32, ptr %3, align 4, !tbaa !3
  %12 = load ptr, ptr %4, align 8, !tbaa !184
  %13 = getelementptr inbounds nuw %struct.opj_tcd_marker_info, ptr %12, i32 0, i32 0
  store i32 %11, ptr %13, align 8, !tbaa !266
  %14 = load ptr, ptr %4, align 8, !tbaa !184
  store ptr %14, ptr %2, align 8
  store i32 1, ptr %5, align 4
  br label %15

15:                                               ; preds = %10, %9
  call void @llvm.lifetime.end.p0(i64 8, ptr %4) #8
  %16 = load ptr, ptr %2, align 8
  ret ptr %16
}