; Function Attrs: nounwind uwtable
define hidden ptr @opj_tcd_marker_info_create(i32 noundef %0) local_unnamed_addr #0 {
  %2 = tail call ptr @opj_calloc(i64 noundef 1, i64 noundef 16) #16
  %.not = icmp eq ptr %2, null
  br i1 %.not, label %4, label %3

3:                                                ; preds = %1
  store i32 %0, ptr %2, align 8, !tbaa !270
  br label %4

4:                                                ; preds = %1, %3
  ret ptr %2
}